; Function Attrs: nounwind uwtable
define dso_local double @lua_tonumber(ptr noundef readonly captures(none) %0, i32 noundef %1) local_unnamed_addr #1 {
  %3 = alloca %union.TValue, align 8
  %4 = icmp sgt i32 %1, 0
  br i1 %4, label %5, label %19

5:                                                ; preds = %2
  %6 = getelementptr inbounds nuw i8, ptr %0, i64 32
  %7 = load ptr, ptr %6, align 8, !tbaa !15
  %8 = zext nneg i32 %1 to i64
  %9 = getelementptr %union.TValue, ptr %7, i64 %8
  %10 = getelementptr i8, ptr %9, i64 -8
  %11 = getelementptr inbounds nuw i8, ptr %0, i64 40
  %12 = load ptr, ptr %11, align 8, !tbaa !14
  %13 = icmp ult ptr %10, %12
  br i1 %13, label %index2adr.exit, label %14

14:                                               ; preds = %5
  %15 = getelementptr inbounds nuw i8, ptr %0, i64 16
  %16 = load i64, ptr %15, align 8, !tbaa !21
  %17 = inttoptr i64 %16 to ptr
  %18 = getelementptr inbounds nuw i8, ptr %17, i64 248
  br label %index2adr.exit

19:                                               ; preds = %2
  %20 = icmp sgt i32 %1, -10000
  br i1 %20, label %21, label %26

21:                                               ; preds = %19
  %22 = getelementptr inbounds nuw i8, ptr %0, i64 40
  %23 = load ptr, ptr %22, align 8, !tbaa !14
  %24 = sext i32 %1 to i64
  %25 = getelementptr inbounds %union.TValue, ptr %23, i64 %24
  br label %index2adr.exit

26:                                               ; preds = %19
  switch i32 %1, label %40 [
    i32 -10002, label %27
    i32 -10000, label %35
  ]

27:                                               ; preds = %26
  %28 = getelementptr inbounds nuw i8, ptr %0, i64 16
  %29 = load i64, ptr %28, align 8, !tbaa !21
  %30 = inttoptr i64 %29 to ptr
  %31 = getelementptr inbounds nuw i8, ptr %30, i64 232
  %32 = getelementptr inbounds nuw i8, ptr %0, i64 72
  %33 = load i64, ptr %32, align 8, !tbaa !24
  %34 = or i64 %33, -1688849860263936
  store i64 %34, ptr %31, align 8, !tbaa !17
  br label %index2adr.exit

35:                                               ; preds = %26
  %36 = getelementptr inbounds nuw i8, ptr %0, i64 16
  %37 = load i64, ptr %36, align 8, !tbaa !21
  %38 = inttoptr i64 %37 to ptr
  %39 = getelementptr inbounds nuw i8, ptr %38, i64 272
  br label %index2adr.exit

40:                                               ; preds = %26
  %41 = getelementptr inbounds nuw i8, ptr %0, i64 32
  %42 = load ptr, ptr %41, align 8, !tbaa !15
  %43 = getelementptr inbounds i8, ptr %42, i64 -16
  %44 = load i64, ptr %43, align 8, !tbaa !17
  %45 = and i64 %44, 140737488355327
  %46 = inttoptr i64 %45 to ptr
  %47 = icmp eq i32 %1, -10001
  br i1 %47, label %48, label %56

48:                                               ; preds = %40
  %49 = getelementptr inbounds nuw i8, ptr %0, i64 16
  %50 = load i64, ptr %49, align 8, !tbaa !21
  %51 = inttoptr i64 %50 to ptr
  %52 = getelementptr inbounds nuw i8, ptr %51, i64 232
  %53 = getelementptr inbounds nuw i8, ptr %46, i64 16
  %54 = load i64, ptr %53, align 8, !tbaa !17
  %55 = or i64 %54, -1688849860263936
  store i64 %55, ptr %52, align 8, !tbaa !17
  br label %index2adr.exit

56:                                               ; preds = %40
  %57 = sub nuw nsw i32 -10002, %1
  %58 = getelementptr inbounds nuw i8, ptr %46, i64 11
  %59 = load i8, ptr %58, align 1, !tbaa !17
  %60 = zext i8 %59 to i32
  %.not.i = icmp samesign ugt i32 %57, %60
  br i1 %.not.i, label %66, label %61

61:                                               ; preds = %56
  %62 = getelementptr inbounds nuw i8, ptr %46, i64 48
  %63 = sub nsw i32 -10003, %1
  %64 = sext i32 %63 to i64
  %65 = getelementptr inbounds [1 x %union.TValue], ptr %62, i64 0, i64 %64
  br label %index2adr.exit

66:                                               ; preds = %56
  %67 = getelementptr inbounds nuw i8, ptr %0, i64 16
  %68 = load i64, ptr %67, align 8, !tbaa !21
  %69 = inttoptr i64 %68 to ptr
  %70 = getelementptr inbounds nuw i8, ptr %69, i64 248
  br label %index2adr.exit

index2adr.exit:                                   ; preds = %5, %14, %21, %27, %35, %48, %61, %66
  %.0.i = phi ptr [ %25, %21 ], [ %31, %27 ], [ %39, %35 ], [ %18, %14 ], [ %10, %5 ], [ %52, %48 ], [ %65, %61 ], [ %70, %66 ]
  call void @llvm.lifetime.start.p0(i64 8, ptr nonnull %3) #13
  %71 = load i64, ptr %.0.i, align 8
  %72 = ashr i64 %71, 47
  %73 = icmp ult i64 %72, -13
  br i1 %73, label %74, label %76, !prof !27

74:                                               ; preds = %index2adr.exit
  %75 = bitcast i64 %71 to double
  br label %84

76:                                               ; preds = %index2adr.exit
  %77 = icmp eq i64 %72, -5
  br i1 %77, label %78, label %84

78:                                               ; preds = %76
  %79 = and i64 %71, 140737488355327
  %80 = inttoptr i64 %79 to ptr
  %81 = call i32 @lj_strscan_num(ptr noundef %80, ptr noundef nonnull %3) #13
  %.not = icmp eq i32 %81, 0
  br i1 %.not, label %84, label %82

82:                                               ; preds = %78
  %83 = load double, ptr %3, align 8, !tbaa !17
  br label %84

84:                                               ; preds = %76, %78, %82, %74
  %.0 = phi double [ %75, %74 ], [ %83, %82 ], [ 0.000000e+00, %78 ], [ 0.000000e+00, %76 ]
  call void @llvm.lifetime.end.p0(i64 8, ptr nonnull %3) #13
  ret double %.0
}